target datalayout = "e-m:e-p270:32:32-p271:32:32-p272:64:64-i64:64-i128:128-f80:128-n8:16:32:64-S128"
target triple = "x86_64-pc-linux-gnu"

%struct.ec_name2nid_st = type { ptr, i32 }

; Function Attrs: nounwind uwtable
define ptr @ossl_ec_curve_nid2nist_int(i32 noundef %0) #0 {
  %2 = alloca ptr, align 8
  %3 = alloca i32, align 4
  %4 = alloca i64, align 8
  %5 = alloca i32, align 4
  store i32 %0, ptr %3, align 4, !tbaa !3
  call void @llvm.lifetime.start.p0(i64 8, ptr %4) #4
  store i64 0, ptr %4, align 8, !tbaa !7
  br label %6

6:                                                ; preds = %22, %1
  %7 = load i64, ptr %4, align 8, !tbaa !7
  %8 = icmp ult i64 %7, 15
  br i1 %8, label %9, label %25

9:                                                ; preds = %6
  %10 = load i64, ptr %4, align 8, !tbaa !7
  %11 = getelementptr inbounds nuw [15 x %struct.ec_name2nid_st], ptr @nist_curves, i64 0, i64 %10
  %12 = getelementptr inbounds nuw %struct.ec_name2nid_st, ptr %11, i32 0, i32 1
  %13 = load i32, ptr %12, align 8, !tbaa !9
  %14 = load i32, ptr %3, align 4, !tbaa !3
  %15 = icmp eq i32 %13, %14
  br i1 %15, label %16, label %21

16:                                               ; preds = %9
  %17 = load i64, ptr %4, align 8, !tbaa !7
  %18 = getelementptr inbounds nuw [15 x %struct.ec_name2nid_st], ptr @nist_curves, i64 0, i64 %17
  %19 = getelementptr inbounds nuw %struct.ec_name2nid_st, ptr %18, i32 0, i32 0
  %20 = load ptr, ptr %19, align 16, !tbaa !13
  store ptr %20, ptr %2, align 8
  store i32 1, ptr %5, align 4
  br label %26

21:                                               ; preds = %9
  br label %22

22:                                               ; preds = %21
  %23 = load i64, ptr %4, align 8, !tbaa !7
  %24 = add i64 %23, 1
  store i64 %24, ptr %4, align 8, !tbaa !7
  br label %6, !llvm.loop !19

25:                                               ; preds = %6
  store ptr null, ptr %2, align 8
  store i32 1, ptr %5, align 4
  br label %26

26:                                               ; preds = %25, %16
  call void @llvm.lifetime.end.p0(i64 8, ptr %4) #4
  %27 = load ptr, ptr %2, align 8
  ret ptr %27
}