; Function Attrs: nofree norecurse nosync nounwind memory(none) uwtable
define ptr @ossl_ec_curve_nid2nist_int(i32 noundef %0) local_unnamed_addr #0 {
  br label %4

2:                                                ; preds = %4
  %3 = add nuw nsw i64 %.06, 1
  %exitcond.not = icmp eq i64 %3, 15
  br i1 %exitcond.not, label %.loopexit, label %4, !llvm.loop !15

4:                                                ; preds = %1, %2
  %.06 = phi i64 [ 0, %1 ], [ %3, %2 ]
  %5 = getelementptr inbounds nuw [15 x %struct.ec_name2nid_st], ptr @nist_curves, i64 0, i64 %.06
  %6 = getelementptr inbounds nuw i8, ptr %5, i64 8
  %7 = load i32, ptr %6, align 8, !tbaa !5
  %8 = icmp eq i32 %7, %0
  br i1 %8, label %9, label %2

9:                                                ; preds = %4
  %10 = load ptr, ptr %5, align 16, !tbaa !12
  br label %.loopexit

.loopexit:                                        ; preds = %2, %9
  %.05 = phi ptr [ %10, %9 ], [ null, %2 ]
  ret ptr %.05
}